; Function Attrs: nounwind uwtable
define range(i32 0, 2) i32 @Gia_ManObjCheckOverlap1(ptr noundef %0, i32 noundef %1, i32 noundef %2, ptr noundef initializes((4, 8)) %3) local_unnamed_addr #1 {
  %5 = getelementptr inbounds nuw i8, ptr %3, i64 4
  store i32 0, ptr %5, align 4, !tbaa !34
  %6 = tail call i32 @Gia_ManObjCheckSat_rec(ptr noundef %0, i32 noundef %1, ptr noundef %3)
  %.not19 = icmp eq i32 %6, 0
  br i1 %.not19, label %9, label %7

7:                                                ; preds = %4
  %8 = tail call i32 @Gia_ManObjCheckSat_rec(ptr noundef %0, i32 noundef %2, ptr noundef nonnull %3)
  br label %9

9:                                                ; preds = %7, %4
  %10 = phi i32 [ %8, %7 ], [ 0, %4 ]
  %11 = getelementptr i8, ptr %0, i64 32
  %.val22 = load i32, ptr %5, align 4, !tbaa !34
  %12 = icmp sgt i32 %.val22, 0
  br i1 %12, label %.lr.ph, label %.critedge

.lr.ph:                                           ; preds = %9
  %13 = getelementptr i8, ptr %3, i64 8
  br label %14

14:                                               ; preds = %.lr.ph, %15
  %indvars.iv = phi i64 [ 0, %.lr.ph ], [ %indvars.iv.next, %15 ]
  %.val21 = load ptr, ptr %11, align 8, !tbaa !16
  %.not = icmp eq ptr %.val21, null
  br i1 %.not, label %.critedge, label %15

15:                                               ; preds = %14
  %.val20 = load ptr, ptr %13, align 8, !tbaa !36
  %16 = getelementptr inbounds nuw i32, ptr %.val20, i64 %indvars.iv
  %17 = load i32, ptr %16, align 4, !tbaa !37
  %18 = sext i32 %17 to i64
  %19 = getelementptr inbounds %struct.Gia_Obj_t_, ptr %.val21, i64 %18
  %20 = load i64, ptr %19, align 4
  %21 = and i64 %20, -4611686019501129729
  store i64 %21, ptr %19, align 4
  %indvars.iv.next = add nuw nsw i64 %indvars.iv, 1
  %.val = load i32, ptr %5, align 4, !tbaa !34
  %22 = sext i32 %.val to i64
  %23 = icmp slt i64 %indvars.iv.next, %22
  br i1 %23, label %14, label %.critedge, !llvm.loop !150

.critedge:                                        ; preds = %14, %15, %9
  ret i32 %10
}